; Function Attrs: mustprogress uwtable
define noundef ptr @uplrules_openForType_77(ptr noundef %0, i32 noundef %1, ptr noundef %2) local_unnamed_addr #1 personality ptr @__gxx_personality_v0 {
  %4 = alloca %"class.icu_77::Locale", align 8
  call void @llvm.lifetime.start.p0(i64 224, ptr nonnull %4) #14
  call void @_ZN6icu_776LocaleC1EPKcS2_S2_S2_(ptr noundef nonnull align 8 dereferenceable(217) %4, ptr noundef %0, ptr noundef null, ptr noundef null, ptr noundef null)
  %5 = invoke noundef ptr @_ZN6icu_7711PluralRules9forLocaleERKNS_6LocaleE11UPluralTypeR10UErrorCode(ptr noundef nonnull align 8 dereferenceable(217) %4, i32 noundef %1, ptr noundef nonnull align 4 dereferenceable(4) %2)
          to label %6 unwind label %7

6:                                                ; preds = %3
  call void @_ZN6icu_776LocaleD1Ev(ptr noundef nonnull align 8 dereferenceable(217) %4) #14
  call void @llvm.lifetime.end.p0(i64 224, ptr nonnull %4) #14
  ret ptr %5

7:                                                ; preds = %3
  %8 = landingpad { ptr, i32 }
          cleanup
  call void @_ZN6icu_776LocaleD1Ev(ptr noundef nonnull align 8 dereferenceable(217) %4) #14
  call void @llvm.lifetime.end.p0(i64 224, ptr nonnull %4) #14
  resume { ptr, i32 } %8
}